; Function Attrs: nounwind uwtable
define i32 @Saig_TsiCountNonXValuedRegisters(ptr noundef captures(none) initializes((48, 56)) %0, i32 noundef %1) local_unnamed_addr #0 {
  %3 = load ptr, ptr %0, align 8, !tbaa !3
  %4 = getelementptr inbounds nuw i8, ptr %3, i64 104
  %5 = load i32, ptr %4, align 8, !tbaa !14
  %6 = tail call noalias dereferenceable_or_null(16) ptr @malloc(i64 noundef 16) #20
  %7 = getelementptr inbounds nuw i8, ptr %6, i64 4
  store i32 0, ptr %7, align 4, !tbaa !41
  store i32 16, ptr %6, align 8, !tbaa !42
  %8 = tail call noalias dereferenceable_or_null(64) ptr @malloc(i64 noundef 64) #20
  %9 = getelementptr inbounds nuw i8, ptr %6, i64 8
  store ptr %8, ptr %9, align 8, !tbaa !37
  %10 = getelementptr inbounds nuw i8, ptr %0, i64 48
  store ptr %6, ptr %10, align 8, !tbaa !36
  %11 = icmp sgt i32 %5, 0
  br i1 %11, label %.preheader.lr.ph, label %._crit_edge

.preheader.lr.ph:                                 ; preds = %2
  %12 = getelementptr inbounds nuw i8, ptr %0, i64 16
  %13 = sext i32 %1 to i64
  br label %.preheader

.preheader:                                       ; preds = %.preheader.lr.ph, %70
  %.02029 = phi i32 [ 0, %.preheader.lr.ph ], [ %71, %70 ]
  %14 = load ptr, ptr %12, align 8, !tbaa !29
  %15 = getelementptr i8, ptr %14, i64 4
  %.val = load i32, ptr %15, align 4, !tbaa !25
  %16 = icmp slt i32 %1, %.val
  br i1 %16, label %.lr.ph, label %.critedge

.lr.ph:                                           ; preds = %.preheader
  %17 = getelementptr i8, ptr %14, i64 8
  %.val22 = load ptr, ptr %17, align 8, !tbaa !28
  %18 = shl nuw nsw i32 %.02029, 1
  %19 = lshr i32 %.02029, 4
  %20 = zext nneg i32 %19 to i64
  %21 = and i32 %18, 30
  %22 = or disjoint i32 %21, 1
  br label %23

23:                                               ; preds = %.lr.ph, %35
  %indvars.iv = phi i64 [ %13, %.lr.ph ], [ %indvars.iv.next, %35 ]
  %24 = getelementptr inbounds ptr, ptr %.val22, i64 %indvars.iv
  %25 = load ptr, ptr %24, align 8, !tbaa !43
  %26 = getelementptr inbounds nuw i32, ptr %25, i64 %20
  %27 = load i32, ptr %26, align 4, !tbaa !39
  %28 = lshr i32 %27, %22
  %29 = shl nuw i32 %28, 1
  %30 = and i32 %29, 2
  %31 = lshr i32 %27, %21
  %32 = and i32 %31, 1
  %33 = or disjoint i32 %30, %32
  %34 = icmp eq i32 %33, 3
  br i1 %34, label %.critedge.loopexit, label %35

35:                                               ; preds = %23
  %indvars.iv.next = add nsw i64 %indvars.iv, 1
  %lftr.wideiv = trunc i64 %indvars.iv.next to i32
  %exitcond.not = icmp eq i32 %.val, %lftr.wideiv
  br i1 %exitcond.not, label %.critedge.thread, label %23, !llvm.loop !44

.critedge.loopexit:                               ; preds = %23
  %36 = trunc nsw i64 %indvars.iv to i32
  br label %.critedge

.critedge:                                        ; preds = %.critedge.loopexit, %.preheader
  %.0.lcssa = phi i32 [ %1, %.preheader ], [ %36, %.critedge.loopexit ]
  %37 = icmp eq i32 %.0.lcssa, %.val
  br i1 %37, label %.critedge.thread, label %70

.critedge.thread:                                 ; preds = %35, %.critedge
  %38 = load ptr, ptr %10, align 8, !tbaa !36
  %39 = getelementptr inbounds nuw i8, ptr %38, i64 4
  %40 = load i32, ptr %39, align 4, !tbaa !41
  %41 = load i32, ptr %38, align 8, !tbaa !42
  %42 = icmp eq i32 %40, %41
  br i1 %42, label %43, label %.Vec_IntGrow.exit10_crit_edge.i

.Vec_IntGrow.exit10_crit_edge.i:                  ; preds = %.critedge.thread
  %.phi.trans.insert.i = getelementptr inbounds nuw i8, ptr %38, i64 8
  %.pre.i = load ptr, ptr %.phi.trans.insert.i, align 8, !tbaa !37
  br label %Vec_IntPush.exit

43:                                               ; preds = %.critedge.thread
  %44 = icmp slt i32 %40, 16
  br i1 %44, label %45, label %53

45:                                               ; preds = %43
  %46 = getelementptr inbounds nuw i8, ptr %38, i64 8
  %47 = load ptr, ptr %46, align 8, !tbaa !37
  %.not9.i.i = icmp eq ptr %47, null
  br i1 %.not9.i.i, label %50, label %48

48:                                               ; preds = %45
  %49 = tail call dereferenceable_or_null(64) ptr @realloc(ptr noundef nonnull %47, i64 noundef 64) #22
  br label %Vec_IntGrow.exit.i

50:                                               ; preds = %45
  %51 = tail call noalias dereferenceable_or_null(64) ptr @malloc(i64 noundef 64) #20
  br label %Vec_IntGrow.exit.i

Vec_IntGrow.exit.i:                               ; preds = %50, %48
  %52 = phi ptr [ %49, %48 ], [ %51, %50 ]
  store ptr %52, ptr %46, align 8, !tbaa !37
  store i32 16, ptr %38, align 8, !tbaa !42
  br label %Vec_IntPush.exit

53:                                               ; preds = %43
  %54 = shl nuw nsw i32 %40, 1
  %55 = getelementptr inbounds nuw i8, ptr %38, i64 8
  %56 = load ptr, ptr %55, align 8, !tbaa !37
  %.not9.i9.i = icmp eq ptr %56, null
  %57 = zext nneg i32 %54 to i64
  %58 = shl nuw nsw i64 %57, 2
  br i1 %.not9.i9.i, label %61, label %59

59:                                               ; preds = %53
  %60 = tail call ptr @realloc(ptr noundef nonnull %56, i64 noundef %58) #22
  br label %63

61:                                               ; preds = %53
  %62 = tail call noalias ptr @malloc(i64 noundef %58) #20
  br label %63

63:                                               ; preds = %61, %59
  %64 = phi ptr [ %60, %59 ], [ %62, %61 ]
  store ptr %64, ptr %55, align 8, !tbaa !37
  store i32 %54, ptr %38, align 8, !tbaa !42
  br label %Vec_IntPush.exit

Vec_IntPush.exit:                                 ; preds = %.Vec_IntGrow.exit10_crit_edge.i, %Vec_IntGrow.exit.i, %63
  %65 = phi ptr [ %.pre.i, %.Vec_IntGrow.exit10_crit_edge.i ], [ %64, %63 ], [ %52, %Vec_IntGrow.exit.i ]
  %66 = load i32, ptr %39, align 4, !tbaa !41
  %67 = add nsw i32 %66, 1
  store i32 %67, ptr %39, align 4, !tbaa !41
  %68 = sext i32 %66 to i64
  %69 = getelementptr inbounds i32, ptr %65, i64 %68
  store i32 %.02029, ptr %69, align 4, !tbaa !39
  br label %70

70:                                               ; preds = %.critedge, %Vec_IntPush.exit
  %71 = add nuw nsw i32 %.02029, 1
  %exitcond31.not = icmp eq i32 %71, %5
  br i1 %exitcond31.not, label %._crit_edge.loopexit, label %.preheader, !llvm.loop !45

._crit_edge.loopexit:                             ; preds = %70
  %.pre = load ptr, ptr %10, align 8, !tbaa !36
  %.phi.trans.insert = getelementptr i8, ptr %.pre, i64 4
  %.val23.pre = load i32, ptr %.phi.trans.insert, align 4, !tbaa !41
  br label %._crit_edge

._crit_edge:                                      ; preds = %._crit_edge.loopexit, %2
  %.val23 = phi i32 [ %.val23.pre, %._crit_edge.loopexit ], [ 0, %2 ]
  ret i32 %.val23
}